target datalayout = "e-m:e-p270:32:32-p271:32:32-p272:64:64-i64:64-i128:128-f80:128-n8:16:32:64-S128"
target triple = "x86_64-pc-linux-gnu"

; Function Attrs: inlinehint nounwind uwtable
define internal ptr @ossl_check_X509_ATTRIBUTE_type(ptr noundef %0) #3 {
  %2 = alloca ptr, align 8
  store ptr %0, ptr %2, align 8, !tbaa !138
  %3 = load ptr, ptr %2, align 8, !tbaa !138
  ret ptr %3
}

; Function Attrs: inlinehint nounwind uwtable
define internal ptr @ossl_check_X509_ATTRIBUTE_sk_type(ptr noundef %0) #3 {
  %2 = alloca ptr, align 8
  store ptr %0, ptr %2, align 8, !tbaa !114
  %3 = load ptr, ptr %2, align 8, !tbaa !114
  ret ptr %3
}

; Function Attrs: inlinehint nounwind uwtable
define internal ptr @ossl_check_const_X509_ATTRIBUTE_sk_type(ptr noundef %0) #3 {
  %2 = alloca ptr, align 8
  store ptr %0, ptr %2, align 8, !tbaa !114
  %3 = load ptr, ptr %2, align 8, !tbaa !114
  ret ptr %3
}

; Function Attrs: nounwind uwtable
define internal i32 @add_attribute(ptr noundef %0, i32 noundef %1, i32 noundef %2, ptr noundef %3) #0 {
  %5 = alloca i32, align 4
  %6 = alloca ptr, align 8
  %7 = alloca i32, align 4
  %8 = alloca i32, align 4
  %9 = alloca ptr, align 8
  %10 = alloca ptr, align 8
  %11 = alloca i32, align 4
  %12 = alloca i32, align 4
  %13 = alloca i32, align 4
  store ptr %0, ptr %6, align 8, !tbaa !136
  store i32 %1, ptr %7, align 4, !tbaa !8
  store i32 %2, ptr %8, align 4, !tbaa !8
  store ptr %3, ptr %9, align 8, !tbaa !135
  call void @llvm.lifetime.start.p0(i64 8, ptr %10) #5
  store ptr null, ptr %10, align 8, !tbaa !138
  call void @llvm.lifetime.start.p0(i64 4, ptr %11) #5
  call void @llvm.lifetime.start.p0(i64 4, ptr %12) #5
  %14 = load ptr, ptr %6, align 8, !tbaa !136
  %15 = load ptr, ptr %14, align 8, !tbaa !114
  %16 = icmp eq ptr %15, null
  br i1 %16, label %17, label %23

17:                                               ; preds = %4
  %18 = call ptr @OPENSSL_sk_new_null()
  %19 = load ptr, ptr %6, align 8, !tbaa !136
  store ptr %18, ptr %19, align 8, !tbaa !114
  %20 = icmp eq ptr %18, null
  br i1 %20, label %21, label %22

21:                                               ; preds = %17
  store i32 0, ptr %5, align 4
  store i32 1, ptr %13, align 4
  br label %87

22:                                               ; preds = %17
  br label %23

23:                                               ; preds = %22, %4
  %24 = load ptr, ptr %6, align 8, !tbaa !136
  %25 = load ptr, ptr %24, align 8, !tbaa !114
  %26 = call ptr @ossl_check_const_X509_ATTRIBUTE_sk_type(ptr noundef %25)
  %27 = call i32 @OPENSSL_sk_num(ptr noundef %26)
  store i32 %27, ptr %12, align 4, !tbaa !8
  store i32 0, ptr %11, align 4, !tbaa !8
  br label %28

28:                                               ; preds = %45, %23
  %29 = load i32, ptr %11, align 4, !tbaa !8
  %30 = load i32, ptr %12, align 4, !tbaa !8
  %31 = icmp slt i32 %29, %30
  br i1 %31, label %32, label %48

32:                                               ; preds = %28
  %33 = load ptr, ptr %6, align 8, !tbaa !136
  %34 = load ptr, ptr %33, align 8, !tbaa !114
  %35 = call ptr @ossl_check_const_X509_ATTRIBUTE_sk_type(ptr noundef %34)
  %36 = load i32, ptr %11, align 4, !tbaa !8
  %37 = call ptr @OPENSSL_sk_value(ptr noundef %35, i32 noundef %36)
  store ptr %37, ptr %10, align 8, !tbaa !138
  %38 = load ptr, ptr %10, align 8, !tbaa !138
  %39 = call ptr @X509_ATTRIBUTE_get0_object(ptr noundef %38)
  %40 = call i32 @OBJ_obj2nid(ptr noundef %39)
  %41 = load i32, ptr %7, align 4, !tbaa !8
  %42 = icmp eq i32 %40, %41
  br i1 %42, label %43, label %44

43:                                               ; preds = %32
  br label %57

44:                                               ; preds = %32
  br label %45

45:                                               ; preds = %44
  %46 = load i32, ptr %11, align 4, !tbaa !8
  %47 = add nsw i32 %46, 1
  store i32 %47, ptr %11, align 4, !tbaa !8
  br label %28, !llvm.loop !140

48:                                               ; preds = %28
  %49 = load ptr, ptr %6, align 8, !tbaa !136
  %50 = load ptr, ptr %49, align 8, !tbaa !114
  %51 = call ptr @ossl_check_X509_ATTRIBUTE_sk_type(ptr noundef %50)
  %52 = call ptr @ossl_check_X509_ATTRIBUTE_type(ptr noundef null)
  %53 = call i32 @OPENSSL_sk_push(ptr noundef %51, ptr noundef %52)
  %54 = icmp ne i32 %53, 0
  br i1 %54, label %56, label %55

55:                                               ; preds = %48
  store i32 0, ptr %5, align 4
  store i32 1, ptr %13, align 4
  br label %87

56:                                               ; preds = %48
  br label %57

57:                                               ; preds = %56, %43
  %58 = load i32, ptr %7, align 4, !tbaa !8
  %59 = load i32, ptr %8, align 4, !tbaa !8
  %60 = load ptr, ptr %9, align 8, !tbaa !135
  %61 = call ptr @X509_ATTRIBUTE_create(i32 noundef %58, i32 noundef %59, ptr noundef %60)
  store ptr %61, ptr %10, align 8, !tbaa !138
  %62 = load ptr, ptr %10, align 8, !tbaa !138
  %63 = icmp eq ptr %62, null
  br i1 %63, label %64, label %74

64:                                               ; preds = %57
  %65 = load i32, ptr %11, align 4, !tbaa !8
  %66 = load i32, ptr %12, align 4, !tbaa !8
  %67 = icmp eq i32 %65, %66
  br i1 %67, label %68, label %73

68:                                               ; preds = %64
  %69 = load ptr, ptr %6, align 8, !tbaa !136
  %70 = load ptr, ptr %69, align 8, !tbaa !114
  %71 = call ptr @ossl_check_X509_ATTRIBUTE_sk_type(ptr noundef %70)
  %72 = call ptr @OPENSSL_sk_pop(ptr noundef %71)
  br label %73

73:                                               ; preds = %68, %64
  store i32 0, ptr %5, align 4
  store i32 1, ptr %13, align 4
  br label %87

74:                                               ; preds = %57
  %75 = load ptr, ptr %6, align 8, !tbaa !136
  %76 = load ptr, ptr %75, align 8, !tbaa !114
  %77 = call ptr @ossl_check_const_X509_ATTRIBUTE_sk_type(ptr noundef %76)
  %78 = load i32, ptr %11, align 4, !tbaa !8
  %79 = call ptr @OPENSSL_sk_value(ptr noundef %77, i32 noundef %78)
  call void @X509_ATTRIBUTE_free(ptr noundef %79)
  %80 = load ptr, ptr %6, align 8, !tbaa !136
  %81 = load ptr, ptr %80, align 8, !tbaa !114
  %82 = call ptr @ossl_check_X509_ATTRIBUTE_sk_type(ptr noundef %81)
  %83 = load i32, ptr %11, align 4, !tbaa !8
  %84 = load ptr, ptr %10, align 8, !tbaa !138
  %85 = call ptr @ossl_check_X509_ATTRIBUTE_type(ptr noundef %84)
  %86 = call ptr @OPENSSL_sk_set(ptr noundef %82, i32 noundef %83, ptr noundef %85)
  store i32 1, ptr %5, align 4
  store i32 1, ptr %13, align 4
  br label %87

87:                                               ; preds = %74, %73, %55, %21
  call void @llvm.lifetime.end.p0(i64 4, ptr %12) #5
  call void @llvm.lifetime.end.p0(i64 4, ptr %11) #5
  call void @llvm.lifetime.end.p0(i64 8, ptr %10) #5
  %88 = load i32, ptr %5, align 4
  ret i32 %88
}