; Function Attrs: nounwind uwtable
define internal fastcc range(i32 0, 2) i32 @add_attribute(ptr noundef captures(none) %0, i32 noundef %1, i32 noundef %2, ptr noundef %3) unnamed_addr #0 {
  %5 = load ptr, ptr %0, align 8, !tbaa !101
  %6 = icmp eq ptr %5, null
  br i1 %6, label %7, label %10

7:                                                ; preds = %4
  %8 = tail call ptr @OPENSSL_sk_new_null() #4
  store ptr %8, ptr %0, align 8, !tbaa !101
  %9 = icmp eq ptr %8, null
  br i1 %9, label %35, label %10

10:                                               ; preds = %7, %4
  %11 = phi ptr [ %8, %7 ], [ %5, %4 ]
  %12 = tail call i32 @OPENSSL_sk_num(ptr noundef nonnull %11) #4
  %13 = icmp sgt i32 %12, 0
  br i1 %13, label %.lr.ph, label %._crit_edge

.lr.ph:                                           ; preds = %10, %19
  %.02327 = phi i32 [ %20, %19 ], [ 0, %10 ]
  %14 = load ptr, ptr %0, align 8, !tbaa !101
  %15 = tail call ptr @OPENSSL_sk_value(ptr noundef %14, i32 noundef %.02327) #4
  %16 = tail call ptr @X509_ATTRIBUTE_get0_object(ptr noundef %15) #4
  %17 = tail call i32 @OBJ_obj2nid(ptr noundef %16) #4
  %18 = icmp eq i32 %17, %1
  br i1 %18, label %.loopexit, label %19

19:                                               ; preds = %.lr.ph
  %20 = add nuw nsw i32 %.02327, 1
  %exitcond.not = icmp eq i32 %20, %12
  br i1 %exitcond.not, label %._crit_edge, label %.lr.ph, !llvm.loop !102

._crit_edge:                                      ; preds = %19, %10
  %.023.lcssa = phi i32 [ 0, %10 ], [ %12, %19 ]
  %21 = load ptr, ptr %0, align 8, !tbaa !101
  %22 = tail call i32 @OPENSSL_sk_push(ptr noundef %21, ptr noundef null) #4
  %.not = icmp eq i32 %22, 0
  br i1 %.not, label %35, label %.loopexit

.loopexit:                                        ; preds = %.lr.ph, %._crit_edge
  %.02326 = phi i32 [ %.023.lcssa, %._crit_edge ], [ %.02327, %.lr.ph ]
  %23 = tail call ptr @X509_ATTRIBUTE_create(i32 noundef %1, i32 noundef %2, ptr noundef %3) #4
  %24 = icmp eq ptr %23, null
  br i1 %24, label %25, label %30

25:                                               ; preds = %.loopexit
  %26 = icmp eq i32 %.02326, %12
  br i1 %26, label %27, label %35

27:                                               ; preds = %25
  %28 = load ptr, ptr %0, align 8, !tbaa !101
  %29 = tail call ptr @OPENSSL_sk_pop(ptr noundef %28) #4
  br label %35

30:                                               ; preds = %.loopexit
  %31 = load ptr, ptr %0, align 8, !tbaa !101
  %32 = tail call ptr @OPENSSL_sk_value(ptr noundef %31, i32 noundef %.02326) #4
  tail call void @X509_ATTRIBUTE_free(ptr noundef %32) #4
  %33 = load ptr, ptr %0, align 8, !tbaa !101
  %34 = tail call ptr @OPENSSL_sk_set(ptr noundef %33, i32 noundef %.02326, ptr noundef nonnull %23) #4
  br label %35

35:                                               ; preds = %25, %27, %._crit_edge, %7, %30
  %.0 = phi i32 [ 1, %30 ], [ 0, %7 ], [ 0, %._crit_edge ], [ 0, %27 ], [ 0, %25 ]
  ret i32 %.0
}